cnumpy.core.multiarray
_reconstruct
p1
(cnumpy
ndarray
p2
(I0
tS'b'
tRp3
(I1
(I2
I2
tcnumpy
dtype
p4
(S'f8'
I0
I1
tRp5
(I3
S'<'
NNNI-1
I-1
I0
tbI00
S"\x90\x8c;\x0bl\xd1\x14@-'+\x17b\xdds@\x7f\x15\x94o\x06#q@ID?\xf2\xe5\xbc4@"
tb.