cnumpy.core.multiarray
_reconstruct
p1
(cnumpy
ndarray
p2
(I0
tS'b'
tRp3
(I1
(I2
I2
tcnumpy
dtype
p4
(S'f8'
I0
I1
tRp5
(I3
S'<'
NNNI-1
I-1
I0
tbI00
S"\x130;D\xe5:I@\xfa\xe0r\xf2h\x88\x95@'BkXM8\x91@C\x98\xf8\xf6\xef\xc4\x13@"
tb.