cnumpy.core.multiarray
_reconstruct
p1
(cnumpy
ndarray
p2
(I0
tS'b'
tRp3
(I1
(I2
I2
tcnumpy
dtype
p4
(S'f8'
I0
I1
tRp5
(I3
S'<'
NNNI-1
I-1
I0
tbI00
S'\x95\xbd\xb9tj\x08v@uk\x93\xbb\xb1q(@N9\xbb\xb8:gI@N\xde\xa9\x99\xe1\x01n@'
tb.